target datalayout = "e-m:e-p270:32:32-p271:32:32-p272:64:64-i64:64-i128:128-f80:128-n8:16:32:64-S128"
target triple = "x86_64-pc-linux-gnu"

%struct.rb_vm_struct = type { i64, %struct.anon.5, ptr, i64, %struct.ccan_list_head, i32, i8, i64, ptr, [5 x i64], i64, i64, i64, i64, i64, i64, i64, i64, i64, ptr, ptr, ptr, %struct.anon.9, ptr, i32, %struct.ccan_list_head, %union.pthread_mutex_t, i64, i64, i64, i64, i32, %struct.anon.10, ptr, ptr, ptr, ptr, ptr, ptr, ptr, ptr, i64, [1023 x ptr], %struct.anon.11 }
%struct.anon.5 = type { %struct.ccan_list_head, i32, i32, ptr, ptr, %struct.anon.6, %struct.anon.8 }
%struct.anon.6 = type { %union.pthread_mutex_t, ptr, i32, %union.pthread_cond_t, i8 }
%union.pthread_cond_t = type { %struct.__pthread_cond_s }
%struct.__pthread_cond_s = type { %union.__atomic_wide_counter, %union.__atomic_wide_counter, [2 x i32], [2 x i32], i32, i32, [2 x i32] }
%union.__atomic_wide_counter = type { i64 }
%struct.anon.8 = type { %union.pthread_mutex_t, ptr, i8, %union.pthread_cond_t, i32, i32, i32, i32, %struct.ccan_list_head, i32, %struct.ccan_list_head, %struct.ccan_list_head, %struct.ccan_list_head, i8, %union.pthread_cond_t, %union.pthread_cond_t, i8, i32, i32 }
%struct.anon.9 = type { [65 x i64] }
%struct.ccan_list_head = type { %struct.ccan_list_node }
%struct.ccan_list_node = type { ptr, ptr }
%union.pthread_mutex_t = type { %struct.__pthread_mutex_s }
%struct.__pthread_mutex_s = type { i32, i32, i32, i32, i32, i16, i16, %struct.__pthread_internal_list }
%struct.__pthread_internal_list = type { ptr, ptr }
%struct.anon.10 = type { ptr, ptr }
%struct.anon.11 = type { i64, i64, i64, i64 }

; Function Attrs: nounwind sspstrong uwtable
define internal i64 @get_expanded_load_path(ptr noundef %0) #0 {
  %2 = alloca ptr, align 8
  %3 = alloca i64, align 8
  %4 = alloca i32, align 4
  %5 = alloca i32, align 4
  %6 = alloca i32, align 4
  %7 = alloca i32, align 4
  %8 = alloca i32, align 4
  %9 = alloca i32, align 4
  %10 = alloca i64, align 8
  store ptr %0, ptr %2, align 8, !tbaa !7
  call void @llvm.lifetime.start.p0(i64 8, ptr %3) #8
  store i64 20, ptr %3, align 8, !tbaa !12
  %11 = load ptr, ptr %2, align 8, !tbaa !7
  %12 = getelementptr inbounds nuw %struct.rb_vm_struct, ptr %11, i32 0, i32 12
  %13 = load i64, ptr %12, align 8, !tbaa !14
  %14 = load ptr, ptr %2, align 8, !tbaa !7
  %15 = getelementptr inbounds nuw %struct.rb_vm_struct, ptr %14, i32 0, i32 11
  %16 = load i64, ptr %15, align 8, !tbaa !38
  %17 = call i64 @rb_ary_shared_with_p(i64 noundef %13, i64 noundef %16) #29
  %18 = icmp ne i64 %17, 0
  br i1 %18, label %38, label %19

19:                                               ; preds = %1
  call void @llvm.lifetime.start.p0(i64 4, ptr %4) #8
  store i32 0, ptr %4, align 4, !tbaa !39
  call void @llvm.lifetime.start.p0(i64 4, ptr %5) #8
  store i32 0, ptr %5, align 4, !tbaa !39
  %20 = load ptr, ptr %2, align 8, !tbaa !7
  call void @rb_construct_expanded_load_path(ptr noundef %20, i32 noundef 0, ptr noundef %4, ptr noundef %5)
  %21 = load i32, ptr %4, align 4, !tbaa !39
  %22 = icmp ne i32 %21, 0
  br i1 %22, label %23, label %27

23:                                               ; preds = %19
  %24 = call i64 @rb_dir_getwd_ospath()
  %25 = load ptr, ptr %2, align 8, !tbaa !7
  %26 = getelementptr inbounds nuw %struct.rb_vm_struct, ptr %25, i32 0, i32 13
  store i64 %24, ptr %26, align 8, !tbaa !40
  br label %37

27:                                               ; preds = %19
  %28 = load i32, ptr %5, align 4, !tbaa !39
  %29 = icmp ne i32 %28, 0
  br i1 %29, label %30, label %33

30:                                               ; preds = %27
  %31 = load ptr, ptr %2, align 8, !tbaa !7
  %32 = getelementptr inbounds nuw %struct.rb_vm_struct, ptr %31, i32 0, i32 13
  store i64 20, ptr %32, align 8, !tbaa !40
  br label %36

33:                                               ; preds = %27
  %34 = load ptr, ptr %2, align 8, !tbaa !7
  %35 = getelementptr inbounds nuw %struct.rb_vm_struct, ptr %34, i32 0, i32 13
  store i64 0, ptr %35, align 8, !tbaa !40
  br label %36

36:                                               ; preds = %33, %30
  br label %37

37:                                               ; preds = %36, %23
  call void @llvm.lifetime.end.p0(i64 4, ptr %5) #8
  call void @llvm.lifetime.end.p0(i64 4, ptr %4) #8
  br label %68

38:                                               ; preds = %1
  %39 = load ptr, ptr %2, align 8, !tbaa !7
  %40 = getelementptr inbounds nuw %struct.rb_vm_struct, ptr %39, i32 0, i32 13
  %41 = load i64, ptr %40, align 8, !tbaa !40
  %42 = icmp eq i64 %41, 20
  br i1 %42, label %43, label %45

43:                                               ; preds = %38
  call void @llvm.lifetime.start.p0(i64 4, ptr %6) #8
  store i32 1, ptr %6, align 4, !tbaa !39
  call void @llvm.lifetime.start.p0(i64 4, ptr %7) #8
  store i32 1, ptr %7, align 4, !tbaa !39
  %44 = load ptr, ptr %2, align 8, !tbaa !7
  call void @rb_construct_expanded_load_path(ptr noundef %44, i32 noundef 3, ptr noundef %6, ptr noundef %7)
  call void @llvm.lifetime.end.p0(i64 4, ptr %7) #8
  call void @llvm.lifetime.end.p0(i64 4, ptr %6) #8
  br label %67

45:                                               ; preds = %38
  %46 = load ptr, ptr %2, align 8, !tbaa !7
  %47 = getelementptr inbounds nuw %struct.rb_vm_struct, ptr %46, i32 0, i32 13
  %48 = load i64, ptr %47, align 8, !tbaa !40
  %49 = icmp ne i64 %48, 0
  br i1 %49, label %50, label %66

50:                                               ; preds = %45
  call void @llvm.lifetime.start.p0(i64 4, ptr %8) #8
  store i32 1, ptr %8, align 4, !tbaa !39
  call void @llvm.lifetime.start.p0(i64 4, ptr %9) #8
  store i32 1, ptr %9, align 4, !tbaa !39
  call void @llvm.lifetime.start.p0(i64 8, ptr %10) #8
  %51 = call i64 @rb_dir_getwd_ospath()
  store i64 %51, ptr %10, align 8, !tbaa !12
  %52 = load ptr, ptr %2, align 8, !tbaa !7
  %53 = getelementptr inbounds nuw %struct.rb_vm_struct, ptr %52, i32 0, i32 13
  %54 = load i64, ptr %53, align 8, !tbaa !40
  %55 = load i64, ptr %10, align 8, !tbaa !12
  %56 = call i64 @rb_str_equal(i64 noundef %54, i64 noundef %55)
  %57 = icmp ne i64 %56, 0
  br i1 %57, label %63, label %58

58:                                               ; preds = %50
  %59 = load i64, ptr %10, align 8, !tbaa !12
  %60 = load ptr, ptr %2, align 8, !tbaa !7
  %61 = getelementptr inbounds nuw %struct.rb_vm_struct, ptr %60, i32 0, i32 13
  store i64 %59, ptr %61, align 8, !tbaa !40
  %62 = load ptr, ptr %2, align 8, !tbaa !7
  call void @rb_construct_expanded_load_path(ptr noundef %62, i32 noundef 1, ptr noundef %8, ptr noundef %9)
  br label %65

63:                                               ; preds = %50
  %64 = load ptr, ptr %2, align 8, !tbaa !7
  call void @rb_construct_expanded_load_path(ptr noundef %64, i32 noundef 2, ptr noundef %8, ptr noundef %9)
  br label %65

65:                                               ; preds = %63, %58
  call void @llvm.lifetime.end.p0(i64 8, ptr %10) #8
  call void @llvm.lifetime.end.p0(i64 4, ptr %9) #8
  call void @llvm.lifetime.end.p0(i64 4, ptr %8) #8
  br label %66

66:                                               ; preds = %65, %45
  br label %67

67:                                               ; preds = %66, %43
  br label %68

68:                                               ; preds = %67, %37
  %69 = load ptr, ptr %2, align 8, !tbaa !7
  %70 = getelementptr inbounds nuw %struct.rb_vm_struct, ptr %69, i32 0, i32 14
  %71 = load i64, ptr %70, align 8, !tbaa !41
  call void @llvm.lifetime.end.p0(i64 8, ptr %3) #8
  ret i64 %71
}