; Function Attrs: nounwind sspstrong uwtable
define internal fastcc i64 @get_expanded_load_path(ptr noundef captures(none) %0) unnamed_addr #0 {
  %2 = alloca i32, align 4
  %3 = alloca i32, align 4
  %4 = alloca i32, align 4
  %5 = alloca i32, align 4
  %6 = alloca i32, align 4
  %7 = alloca i32, align 4
  %8 = getelementptr inbounds nuw i8, ptr %0, i64 584
  %9 = load i64, ptr %8, align 8, !tbaa !12
  %10 = getelementptr inbounds nuw i8, ptr %0, i64 576
  %11 = load i64, ptr %10, align 8, !tbaa !37
  %12 = tail call i64 @rb_ary_shared_with_p(i64 noundef %9, i64 noundef %11) #25
  %.not = icmp eq i64 %12, 0
  br i1 %.not, label %13, label %24

13:                                               ; preds = %1
  call void @llvm.lifetime.start.p0(i64 4, ptr nonnull %2) #7
  store i32 0, ptr %2, align 4, !tbaa !38
  call void @llvm.lifetime.start.p0(i64 4, ptr nonnull %3) #7
  store i32 0, ptr %3, align 4, !tbaa !38
  call fastcc void @rb_construct_expanded_load_path(ptr noundef nonnull %0, i32 noundef 0, ptr noundef %2, ptr noundef %3)
  %14 = load i32, ptr %2, align 4, !tbaa !38
  %.not15 = icmp eq i32 %14, 0
  br i1 %.not15, label %18, label %15

15:                                               ; preds = %13
  %16 = tail call i64 @rb_dir_getwd_ospath() #7
  %17 = getelementptr inbounds nuw i8, ptr %0, i64 592
  store i64 %16, ptr %17, align 8, !tbaa !39
  br label %23

18:                                               ; preds = %13
  %19 = load i32, ptr %3, align 4, !tbaa !38
  %.not16 = icmp eq i32 %19, 0
  %20 = getelementptr inbounds nuw i8, ptr %0, i64 592
  br i1 %.not16, label %22, label %21

21:                                               ; preds = %18
  store i64 20, ptr %20, align 8, !tbaa !39
  br label %23

22:                                               ; preds = %18
  store i64 0, ptr %20, align 8, !tbaa !39
  br label %23

23:                                               ; preds = %21, %22, %15
  call void @llvm.lifetime.end.p0(i64 4, ptr nonnull %3) #7
  call void @llvm.lifetime.end.p0(i64 4, ptr nonnull %2) #7
  br label %34

24:                                               ; preds = %1
  %25 = getelementptr inbounds nuw i8, ptr %0, i64 592
  %26 = load i64, ptr %25, align 8, !tbaa !39
  switch i64 %26, label %28 [
    i64 20, label %27
    i64 0, label %34
  ]

27:                                               ; preds = %24
  call void @llvm.lifetime.start.p0(i64 4, ptr nonnull %4) #7
  store i32 1, ptr %4, align 4, !tbaa !38
  call void @llvm.lifetime.start.p0(i64 4, ptr nonnull %5) #7
  store i32 1, ptr %5, align 4, !tbaa !38
  call fastcc void @rb_construct_expanded_load_path(ptr noundef nonnull %0, i32 noundef 3, ptr noundef %4, ptr noundef %5)
  call void @llvm.lifetime.end.p0(i64 4, ptr nonnull %5) #7
  call void @llvm.lifetime.end.p0(i64 4, ptr nonnull %4) #7
  br label %34

28:                                               ; preds = %24
  call void @llvm.lifetime.start.p0(i64 4, ptr nonnull %6) #7
  store i32 1, ptr %6, align 4, !tbaa !38
  call void @llvm.lifetime.start.p0(i64 4, ptr nonnull %7) #7
  store i32 1, ptr %7, align 4, !tbaa !38
  %29 = tail call i64 @rb_dir_getwd_ospath() #7
  %30 = load i64, ptr %25, align 8, !tbaa !39
  %31 = tail call i64 @rb_str_equal(i64 noundef %30, i64 noundef %29) #7
  %.not18 = icmp eq i64 %31, 0
  br i1 %.not18, label %32, label %33

32:                                               ; preds = %28
  store i64 %29, ptr %25, align 8, !tbaa !39
  br label %33

33:                                               ; preds = %28, %32
  %.sink = phi i32 [ 1, %32 ], [ 2, %28 ]
  call fastcc void @rb_construct_expanded_load_path(ptr noundef nonnull %0, i32 noundef %.sink, ptr noundef %6, ptr noundef %7)
  call void @llvm.lifetime.end.p0(i64 4, ptr nonnull %7) #7
  call void @llvm.lifetime.end.p0(i64 4, ptr nonnull %6) #7
  br label %34

34:                                               ; preds = %24, %27, %33, %23
  %35 = getelementptr inbounds nuw i8, ptr %0, i64 600
  %36 = load i64, ptr %35, align 8, !tbaa !40
  ret i64 %36
}